target datalayout = "e-m:e-p270:32:32-p271:32:32-p272:64:64-i64:64-i128:128-f80:128-n8:16:32:64-S128"
target triple = "x86_64-pc-linux-gnu"

%struct.evthread_lock_callbacks = type { i32, i32, ptr, ptr, ptr, ptr }
%struct.bufferevent_private = type { %struct.bufferevent, ptr, i8, i16, i16, i16, i32, i32, %struct.event_callback, i32, i32, ptr, i64, i64, ptr, %union.anon.7, ptr }
%struct.bufferevent = type { ptr, ptr, %struct.event, %struct.event, ptr, ptr, %struct.event_watermark, %struct.event_watermark, ptr, ptr, ptr, ptr, %struct.timeval, %struct.timeval, i16 }
%struct.event = type { %struct.event_callback, %union.anon.0, i32, i16, i16, ptr, %union.anon.2, %struct.timeval }
%union.anon.0 = type { %struct.anon.1 }
%struct.anon.1 = type { ptr, ptr }
%union.anon.2 = type { %struct.anon.3 }
%struct.anon.3 = type { %struct.anon.4, %struct.timeval }
%struct.anon.4 = type { ptr, ptr }
%struct.event_watermark = type { i64, i64 }
%struct.timeval = type { i64, i64 }
%struct.event_callback = type { %struct.anon, i16, i8, i8, %union.anon, ptr }
%struct.anon = type { ptr, ptr }
%union.anon = type { ptr }
%union.anon.7 = type { %struct.sockaddr_in6 }
%struct.sockaddr_in6 = type { i16, i16, i32, %struct.in6_addr, i32 }
%struct.in6_addr = type { %union.anon.8 }
%union.anon.8 = type { [4 x i32] }
%struct.bufferevent_ops = type { ptr, i64, ptr, ptr, ptr, ptr, ptr, ptr, ptr }
%union.bufferevent_ctrl_data = type { ptr }

@evthread_lock_fns_ = external global %struct.evthread_lock_callbacks, align 8
@event_debug_logging_mask_ = external global i32, align 4
@.str.5 = private unnamed_addr constant [25 x i8] c"%s: cannot get fd for %p\00", align 1
@__func__.bufferevent_getfd = private unnamed_addr constant [18 x i8] c"bufferevent_getfd\00", align 1

; Function Attrs: nounwind uwtable
define i32 @bufferevent_getfd(ptr noundef %0) #0 {
  %2 = alloca ptr, align 8
  %3 = alloca %union.bufferevent_ctrl_data, align 8
  %4 = alloca i32, align 4
  %5 = alloca ptr, align 8
  %6 = alloca ptr, align 8
  store ptr %0, ptr %2, align 8
  call void @llvm.lifetime.start.p0(i64 8, ptr %3) #7
  call void @llvm.lifetime.start.p0(i64 4, ptr %4) #7
  store i32 -1, ptr %4, align 4
  store i32 -1, ptr %3, align 8
  br label %7

7:                                                ; preds = %1
  call void @llvm.lifetime.start.p0(i64 8, ptr %5) #7
  %8 = load ptr, ptr %2, align 8
  %9 = getelementptr inbounds i8, ptr %8, i64 0
  store ptr %9, ptr %5, align 8
  br label %10

10:                                               ; preds = %7
  %11 = load ptr, ptr %5, align 8
  %12 = getelementptr inbounds nuw %struct.bufferevent_private, ptr %11, i32 0, i32 11
  %13 = load ptr, ptr %12, align 8
  %14 = icmp ne ptr %13, null
  br i1 %14, label %15, label %21

15:                                               ; preds = %10
  %16 = load ptr, ptr getelementptr inbounds nuw (%struct.evthread_lock_callbacks, ptr @evthread_lock_fns_, i32 0, i32 4), align 8
  %17 = load ptr, ptr %5, align 8
  %18 = getelementptr inbounds nuw %struct.bufferevent_private, ptr %17, i32 0, i32 11
  %19 = load ptr, ptr %18, align 8
  %20 = call i32 %16(i32 noundef 0, ptr noundef %19)
  br label %21

21:                                               ; preds = %15, %10
  br label %22

22:                                               ; preds = %21
  br label %23

23:                                               ; preds = %22
  call void @llvm.lifetime.end.p0(i64 8, ptr %5) #7
  br label %24

24:                                               ; preds = %23
  br label %25

25:                                               ; preds = %24
  %26 = load ptr, ptr %2, align 8
  %27 = getelementptr inbounds nuw %struct.bufferevent, ptr %26, i32 0, i32 1
  %28 = load ptr, ptr %27, align 8
  %29 = getelementptr inbounds nuw %struct.bufferevent_ops, ptr %28, i32 0, i32 8
  %30 = load ptr, ptr %29, align 8
  %31 = icmp ne ptr %30, null
  br i1 %31, label %32, label %40

32:                                               ; preds = %25
  %33 = load ptr, ptr %2, align 8
  %34 = getelementptr inbounds nuw %struct.bufferevent, ptr %33, i32 0, i32 1
  %35 = load ptr, ptr %34, align 8
  %36 = getelementptr inbounds nuw %struct.bufferevent_ops, ptr %35, i32 0, i32 8
  %37 = load ptr, ptr %36, align 8
  %38 = load ptr, ptr %2, align 8
  %39 = call i32 %37(ptr noundef %38, i32 noundef 1, ptr noundef %3)
  store i32 %39, ptr %4, align 4
  br label %40

40:                                               ; preds = %32, %25
  %41 = load i32, ptr %4, align 4
  %42 = icmp ne i32 %41, 0
  br i1 %42, label %43, label %52

43:                                               ; preds = %40
  br label %44

44:                                               ; preds = %43
  %45 = load i32, ptr @event_debug_logging_mask_, align 4
  %46 = icmp ne i32 %45, 0
  br i1 %46, label %47, label %49

47:                                               ; preds = %44
  %48 = load ptr, ptr %2, align 8
  call void (ptr, ...) @event_debugx_(ptr noundef @.str.5, ptr noundef @__func__.bufferevent_getfd, ptr noundef %48)
  br label %49

49:                                               ; preds = %47, %44
  br label %50

50:                                               ; preds = %49
  br label %51

51:                                               ; preds = %50
  br label %52

52:                                               ; preds = %51, %40
  br label %53

53:                                               ; preds = %52
  call void @llvm.lifetime.start.p0(i64 8, ptr %6) #7
  %54 = load ptr, ptr %2, align 8
  %55 = getelementptr inbounds i8, ptr %54, i64 0
  store ptr %55, ptr %6, align 8
  br label %56

56:                                               ; preds = %53
  %57 = load ptr, ptr %6, align 8
  %58 = getelementptr inbounds nuw %struct.bufferevent_private, ptr %57, i32 0, i32 11
  %59 = load ptr, ptr %58, align 8
  %60 = icmp ne ptr %59, null
  br i1 %60, label %61, label %67

61:                                               ; preds = %56
  %62 = load ptr, ptr getelementptr inbounds nuw (%struct.evthread_lock_callbacks, ptr @evthread_lock_fns_, i32 0, i32 5), align 8
  %63 = load ptr, ptr %6, align 8
  %64 = getelementptr inbounds nuw %struct.bufferevent_private, ptr %63, i32 0, i32 11
  %65 = load ptr, ptr %64, align 8
  %66 = call i32 %62(i32 noundef 0, ptr noundef %65)
  br label %67

67:                                               ; preds = %61, %56
  br label %68

68:                                               ; preds = %67
  br label %69

69:                                               ; preds = %68
  call void @llvm.lifetime.end.p0(i64 8, ptr %6) #7
  br label %70

70:                                               ; preds = %69
  br label %71

71:                                               ; preds = %70
  %72 = load i32, ptr %4, align 4
  %73 = icmp slt i32 %72, 0
  br i1 %73, label %74, label %75

74:                                               ; preds = %71
  br label %77

75:                                               ; preds = %71
  %76 = load i32, ptr %3, align 8
  br label %77

77:                                               ; preds = %75, %74
  %78 = phi i32 [ -1, %74 ], [ %76, %75 ]
  call void @llvm.lifetime.end.p0(i64 4, ptr %4) #7
  call void @llvm.lifetime.end.p0(i64 8, ptr %3) #7
  ret i32 %78
}