; Function Attrs: nounwind uwtable
define i32 @bufferevent_getfd(ptr noundef %0) local_unnamed_addr #0 {
  %2 = alloca %union.bufferevent_ctrl_data, align 8
  call void @llvm.lifetime.start.p0(i64 8, ptr nonnull %2) #7
  store i32 -1, ptr %2, align 8
  %3 = getelementptr inbounds nuw i8, ptr %0, i64 448
  %4 = load ptr, ptr %3, align 8
  %.not = icmp eq ptr %4, null
  br i1 %.not, label %8, label %5

5:                                                ; preds = %1
  %6 = load ptr, ptr getelementptr inbounds nuw (i8, ptr @evthread_lock_fns_, i64 24), align 8
  %7 = tail call i32 %6(i32 noundef 0, ptr noundef nonnull %4) #7
  br label %8

8:                                                ; preds = %5, %1
  %9 = getelementptr inbounds nuw i8, ptr %0, i64 8
  %10 = load ptr, ptr %9, align 8
  %11 = getelementptr inbounds nuw i8, ptr %10, i64 64
  %12 = load ptr, ptr %11, align 8
  %.not15 = icmp eq ptr %12, null
  br i1 %.not15, label %15, label %13

13:                                               ; preds = %8
  %14 = call i32 %12(ptr noundef nonnull %0, i32 noundef 1, ptr noundef nonnull %2) #7
  br label %15

15:                                               ; preds = %13, %8
  %.0 = phi i32 [ %14, %13 ], [ -1, %8 ]
  %16 = icmp ne i32 %.0, 0
  %17 = load i32, ptr @event_debug_logging_mask_, align 4
  %18 = icmp ne i32 %17, 0
  %or.cond = select i1 %16, i1 %18, i1 false
  br i1 %or.cond, label %19, label %20

19:                                               ; preds = %15
  call void (ptr, ...) @event_debugx_(ptr noundef nonnull @.str.5, ptr noundef nonnull @__func__.bufferevent_getfd, ptr noundef nonnull %0) #7
  br label %20

20:                                               ; preds = %15, %19
  %21 = load ptr, ptr %3, align 8
  %.not16 = icmp eq ptr %21, null
  br i1 %.not16, label %25, label %22

22:                                               ; preds = %20
  %23 = load ptr, ptr getelementptr inbounds nuw (i8, ptr @evthread_lock_fns_, i64 32), align 8
  %24 = call i32 %23(i32 noundef 0, ptr noundef nonnull %21) #7
  br label %25

25:                                               ; preds = %22, %20
  %26 = load i32, ptr %2, align 8
  %.inv = icmp sgt i32 %.0, -1
  %27 = select i1 %.inv, i32 %26, i32 -1
  call void @llvm.lifetime.end.p0(i64 8, ptr nonnull %2) #7
  ret i32 %27
}